ccopy_reg
_reconstructor
p0
(cpandas.core.frame
DataFrame
p1
c__builtin__
object
p2
Ntp3
Rp4
g0
(cpandas.core.internals
BlockManager
p5
g2
Ntp6
Rp7
((lp8
cpandas.core.index
_new_Index
p9
(cpandas.core.index
Index
p10
(dp11
S'data'
p12
cnumpy.core.multiarray
_reconstruct
p13
(cnumpy
ndarray
p14
(I0
tp15
S'b'
p16
tp17
Rp18
(I1
(I144
tp19
cnumpy
dtype
p20
(S'O8'
p21
I0
I1
tp22
Rp23
(I3
S'|'
p24
NNNI-1
I-1
I63
tp25
bI00
(lp26
S'ALLEN PHILLIP K'
p27
aS'BADUM JAMES P'
p28
aS'BANNANTINE JAMES M'
p29
aS'BAXTER JOHN C'
p30
aS'BAY FRANKLIN R'
p31
aS'BAZELIDES PHILIP J'
p32
aS'BECK SALLY W'
p33
aS'BELDEN TIMOTHY N'
p34
aS'BELFER ROBERT'
p35
aS'BERBERIAN DAVID'
p36
aS'BERGSIEKER RICHARD P'
p37
aS'BHATNAGAR SANJAY'
p38
aS'BIBI PHILIPPE A'
p39
aS'BLACHMAN JEREMY M'
p40
aS'BLAKE JR. NORMAN P'
p41
aS'BOWEN JR RAYMOND M'
p42
aS'BROWN MICHAEL'
p43
aS'BUCHANAN HAROLD G'
p44
aS'BUTTS ROBERT H'
p45
aS'BUY RICHARD B'
p46
aS'CALGER CHRISTOPHER F'
p47
aS'CARTER REBECCA C'
p48
aS'CAUSEY RICHARD A'
p49
aS'CHAN RONNIE'
p50
aS'CHRISTODOULOU DIOMEDES'
p51
aS'CLINE KENNETH W'
p52
aS'COLWELL WESLEY'
p53
aS'CORDES WILLIAM R'
p54
aS'COX DAVID'
p55
aS'CUMBERLAND MICHAEL S'
p56
aS'DEFFNER JOSEPH M'
p57
aS'DELAINEY DAVID W'
p58
aS'DERRICK JR. JAMES V'
p59
aS'DETMERING TIMOTHY J'
p60
aS'DIETRICH JANET R'
p61
aS'DIMICHELE RICHARD G'
p62
aS'DODSON KEITH'
p63
aS'DONAHUE JR JEFFREY M'
p64
aS'DUNCAN JOHN H'
p65
aS'DURAN WILLIAM D'
p66
aS'ECHOLS JOHN B'
p67
aS'ELLIOTT STEVEN'
p68
aS'FALLON JAMES B'
p69
aS'FASTOW ANDREW S'
p70
aS'FITZGERALD JAY L'
p71
aS'FOWLER PEGGY'
p72
aS'FOY JOE'
p73
aS'FREVERT MARK A'
p74
aS'FUGH JOHN L'
p75
aS'GAHN ROBERT S'
p76
aS'GARLAND C KEVIN'
p77
aS'GATHMANN WILLIAM D'
p78
aS'GIBBS DANA R'
p79
aS'GILLIS JOHN'
p80
aS'GLISAN JR BEN F'
p81
aS'GOLD JOSEPH'
p82
aS'GRAMM WENDY L'
p83
aS'GRAY RODNEY'
p84
aS'HAEDICKE MARK E'
p85
aS'HANNON KEVIN P'
p86
aS'HAUG DAVID L'
p87
aS'HAYES ROBERT E'
p88
aS'HAYSLETT RODERICK J'
p89
aS'HERMANN ROBERT J'
p90
aS'HICKERSON GARY J'
p91
aS'HIRKO JOSEPH'
p92
aS'HORTON STANLEY C'
p93
aS'HUGHES JAMES A'
p94
aS'HUMPHREY GENE E'
p95
aS'IZZO LAWRENCE L'
p96
aS'JACKSON CHARLENE R'
p97
aS'JAEDICKE ROBERT'
p98
aS'KAMINSKI WINCENTY J'
p99
aS'KEAN STEVEN J'
p100
aS'KISHKILL JOSEPH G'
p101
aS'KITCHEN LOUISE'
p102
aS'KOENIG MARK E'
p103
aS'KOPPER MICHAEL J'
p104
aS'LAVORATO JOHN J'
p105
aS'LAY KENNETH L'
p106
aS'LEFF DANIEL P'
p107
aS'LEMAISTRE CHARLES'
p108
aS'LEWIS RICHARD'
p109
aS'LINDHOLM TOD A'
p110
aS'LOCKHART EUGENE E'
p111
aS'LOWRY CHARLES P'
p112
aS'MARTIN AMANDA K'
p113
aS'MCCARTY DANNY J'
p114
aS'MCCLELLAN GEORGE'
p115
aS'MCCONNELL MICHAEL S'
p116
aS'MCDONALD REBECCA'
p117
aS'MCMAHON JEFFREY'
p118
aS'MENDELSOHN JOHN'
p119
aS'METTS MARK'
p120
aS'MEYER JEROME J'
p121
aS'MEYER ROCKFORD G'
p122
aS'MORAN MICHAEL P'
p123
aS'MORDAUNT KRISTINA M'
p124
aS'MULLER MARK S'
p125
aS'MURRAY JULIA H'
p126
aS'NOLES JAMES L'
p127
aS'OLSON CINDY K'
p128
aS'OVERDYKE JR JERE C'
p129
aS'PAI LOU L'
p130
aS'PEREIRA PAULO V. FERRAZ'
p131
aS'PICKERING MARK R'
p132
aS'PIPER GREGORY F'
p133
aS'PIRO JIM'
p134
aS'POWERS WILLIAM'
p135
aS'PRENTICE JAMES'
p136
aS'REDMOND BRIAN L'
p137
aS'REYNOLDS LAWRENCE'
p138
aS'RICE KENNETH D'
p139
aS'RIEKER PAULA H'
p140
aS'SAVAGE FRANK'
p141
aS'SCRIMSHAW MATTHEW'
p142
aS'SHANKMAN JEFFREY A'
p143
aS'SHAPIRO RICHARD S'
p144
aS'SHARP VICTORIA T'
p145
aS'SHELBY REX'
p146
aS'SHERRICK JEFFREY B'
p147
aS'SHERRIFF JOHN R'
p148
aS'SKILLING JEFFREY K'
p149
aS'STABLER FRANK'
p150
aS'SULLIVAN-SHAKLOVITZ COLLEEN'
p151
aS'SUNDE MARTIN'
p152
aS'TAYLOR MITCHELL S'
p153
aS'THORN TERENCE H'
p154
aS'TILNEY ELIZABETH A'
p155
aS'UMANOFF ADAM S'
p156
aS'URQUHART JOHN A'
p157
aS'WAKEHAM JOHN'
p158
aS'WALLS JR ROBERT H'
p159
aS'WALTERS GARETH W'
p160
aS'WASAFF GEORGE'
p161
aS'WESTFAHL RICHARD K'
p162
aS'WHALEY DAVID A'
p163
aS'WHALLEY LAWRENCE G'
p164
aS'WHITE JR THOMAS E'
p165
aS'WINOKUR JR. HERBERT S'
p166
aS'WODRASKA JOHN'
p167
aS'WROBEL BRUCE'
p168
aS'YEAGER F SCOTT'
p169
aS'YEAP SOON'
p170
atp171
bsS'name'
p172
Nstp173
Rp174
ag9
(g10
(dp175
g12
g13
(g14
(I0
tp176
g16
tp177
Rp178
(I1
(I23
tp179
g23
I00
(lp180
S'bonus'
p181
aS'deferral_payments'
p182
aS'deferred_income'
p183
aS'director_fees'
p184
aS'email_address'
p185
aS'exercised_stock_options'
p186
aS'expenses'
p187
aS'from_messages'
p188
aS'from_poi_to_this_person'
p189
aS'from_this_person_to_poi'
p190
aS'loan_advances'
p191
aS'long_term_incentive'
p192
aS'other'
p193
aS'poi'
p194
aS'restricted_stock'
p195
aS'restricted_stock_deferred'
p196
aS'salary'
p197
aS'shared_receipt_with_poi'
p198
aS'to_messages'
p199
aS'total_payments'
p200
aS'total_stock_value'
p201
aS'from_this_person_to_poi_ratio'
p202
aS'from_poi_to_this_person_ratio'
p203
atp204
bsg172
Nstp205
Rp206
a(lp207
g13
(g14
(I0
tp208
g16
tp209
Rp210
(I1
(I144
I23
tp211
g23
I01
(lp212
F4175000.0
aF2869717.0
aF-3081055.0
aF0.0
aS'phillip.allen@enron.com'
p213
aF1729541.0
aF13868.0
aF2195.0
aF47.0
aF65.0
aF0.0
aF304805.0
aF152.0
aF0.0
aF126027.0
aF-126027.0
aF201955.0
aF1407.0
aF2902.0
aF4484442.0
aF1729541.0
aF0.022398345968297727
aF0.0214123006833713
aF0.0
aF178980.0
aF0.0
aF0.0
aF0.0
aF257817.0
aF3486.0
aF0.0
aF0.0
aF0.0
aF0.0
aF0.0
aF0.0
aF0.0
aF0.0
aF0.0
aF0.0
aF0.0
aF0.0
aF182466.0
aF257817.0
aF0.0
aF0.0
aF0.0
aF0.0
aF-5104.0
aF0.0
aS'james.bannantine@enron.com'
p214
aF4046157.0
aF56301.0
aF29.0
aF39.0
aF0.0
aF0.0
aF0.0
aF864523.0
aF0.0
aF1757552.0
aF-560222.0
aF477.0
aF465.0
aF566.0
aF916197.0
aF5243487.0
aF0.0
aF1.3448275862068966
aF1200000.0
aF1295738.0
aF-1386055.0
aF0.0
aF0.0
aF6680544.0
aF11200.0
aF0.0
aF0.0
aF0.0
aF0.0
aF1586055.0
aF2660303.0
aF0.0
aF3942714.0
aF0.0
aF267102.0
aF0.0
aF0.0
aF5634343.0
aF10623258.0
aF0.0
aF0.0
aF400000.0
aF260455.0
aF-201641.0
aF0.0
aS'frank.bay@enron.com'
p215
aF0.0
aF129142.0
aF0.0
aF0.0
aF0.0
aF0.0
aF0.0
aF69.0
aF0.0
aF145796.0
aF-82782.0
aF239671.0
aF0.0
aF0.0
aF827696.0
aF63014.0
aF0.0
aF0.0
aF0.0
aF684694.0
aF0.0
aF0.0
aF0.0
aF1599641.0
aF0.0
aF0.0
aF0.0
aF0.0
aF0.0
aF93750.0
aF874.0
aF0.0
aF0.0
aF0.0
aF80818.0
aF0.0
aF0.0
aF860136.0
aF1599641.0
aF0.0
aF0.0
aF700000.0
aF0.0
aF0.0
aF0.0
aS'sally.beck@enron.com'
p216
aF0.0
aF37172.0
aF4343.0
aF144.0
aF386.0
aF0.0
aF0.0
aF566.0
aF0.0
aF126027.0
aF0.0
aF231330.0
aF2639.0
aF7315.0
aF969068.0
aF126027.0
aF0.052768284347231714
aF0.033156804052498275
aF5249999.0
aF2144013.0
aF-2334434.0
aF0.0
aS'tim.belden@enron.com'
p217
aF953136.0
aF17355.0
aF484.0
aF228.0
aF108.0
aF0.0
aF0.0
aF210698.0
aF1.0
aF157569.0
aF0.0
aF213999.0
aF5521.0
aF7991.0
aF5501630.0
aF1110705.0
aF0.013515204605180828
aF0.47107438016528924
aF0.0
aF-102500.0
aF0.0
aF3285.0
aF0.0
aF3285.0
aF0.0
aF0.0
aF0.0
aF0.0
aF0.0
aF0.0
aF0.0
aF0.0
aF0.0
aF44093.0
aF0.0
aF0.0
aF0.0
aF102500.0
aF-44093.0
aF0.0
aF0.0
aF0.0
aF0.0
aF0.0
aF0.0
aS'david.berberian@enron.com'
p218
aF1624396.0
aF11892.0
aF0.0
aF0.0
aF0.0
aF0.0
aF0.0
aF0.0
aF0.0
aF869220.0
aF0.0
aF216582.0
aF0.0
aF0.0
aF228474.0
aF2493616.0
aF0.0
aF0.0
aF250000.0
aF0.0
aF-485813.0
aF0.0
aS'rick.bergsieker@enron.com'
p219
aF0.0
aF59175.0
aF59.0
aF4.0
aF0.0
aF0.0
aF180250.0
aF427316.0
aF0.0
aF659249.0
aF0.0
aF187922.0
aF233.0
aF383.0
aF618850.0
aF659249.0
aF0.0
aF0.06779661016949153
aF0.0
aF0.0
aF0.0
aF137864.0
aS'sanjay.bhatnagar@enron.com'
p220
aF2604490.0
aF0.0
aF29.0
aF0.0
aF1.0
aF0.0
aF0.0
aF137864.0
aF0.0
aF-2604490.0
aF15456290.0
aF0.0
aF463.0
aF523.0
aF15456290.0
aF0.0
aF0.0019120458891013384
aF0.0
aF1000000.0
aF0.0
aF0.0
aF0.0
aS'philippe.bibi@enron.com'
p221
aF1465734.0
aF38559.0
aF40.0
aF23.0
aF8.0
aF0.0
aF369721.0
aF425688.0
aF0.0
aF378082.0
aF0.0
aF213625.0
aF1336.0
aF1607.0
aF2047593.0
aF1843816.0
aF0.004978220286247666
aF0.575
aF850000.0
aF0.0
aF0.0
aF0.0
aS'jeremy.blachman@enron.com'
p222
aF765313.0
aF84208.0
aF14.0
aF25.0
aF2.0
aF0.0
aF831809.0
aF272.0
aF0.0
aF189041.0
aF0.0
aF248546.0
aF2326.0
aF2475.0
aF2014835.0
aF954354.0
aF0.0008080808080808081
aF1.7857142857142858
aF0.0
aF0.0
aF-113784.0
aF113784.0
aF0.0
aF0.0
aF1279.0
aF0.0
aF0.0
aF0.0
aF0.0
aF0.0
aF0.0
aF0.0
aF0.0
aF0.0
aF0.0
aF0.0
aF0.0
aF1279.0
aF0.0
aF0.0
aF0.0
aF1350000.0
aF0.0
aF-833.0
aF0.0
aS'raymond.bowen@enron.com'
p223
aF0.0
aF65907.0
aF27.0
aF140.0
aF15.0
aF0.0
aF974293.0
aF1621.0
aF1.0
aF252055.0
aF0.0
aF278601.0
aF1593.0
aF1858.0
aF2669589.0
aF252055.0
aF0.008073196986006458
aF5.185185185185185
aF0.0
aF0.0
aF0.0
aF0.0
aS'michael.brown@enron.com'
p224
aF0.0
aF49288.0
aF41.0
aF13.0
aF1.0
aF0.0
aF0.0
aF0.0
aF0.0
aF0.0
aF0.0
aF0.0
aF761.0
aF1486.0
aF49288.0
aF0.0
aF0.0006729475100942127
aF0.3170731707317073
aF500000.0
aF0.0
aF0.0
aF0.0
aS'john.buchanan@enron.com'
p225
aF825464.0
aF600.0
aF125.0
aF0.0
aF0.0
aF0.0
aF304805.0
aF1215.0
aF0.0
aF189041.0
aF0.0
aF248017.0
aF23.0
aF1088.0
aF1054637.0
aF1014505.0
aF0.0
aF0.0
aF750000.0
aF0.0
aF-75000.0
aF0.0
aS'bob.butts@enron.com'
p226
aF0.0
aF9410.0
aF0.0
aF0.0
aF0.0
aF0.0
aF175000.0
aF150656.0
aF0.0
aF417619.0
aF0.0
aF261516.0
aF0.0
aF0.0
aF1271582.0
aF417619.0
aF0.0
aF0.0
aF900000.0
aF649584.0
aF-694862.0
aF0.0
aS'rick.buy@enron.com'
p227
aF2542813.0
aF0.0
aF1053.0
aF156.0
aF71.0
aF0.0
aF769862.0
aF400572.0
aF0.0
aF901657.0
aF0.0
aF330546.0
aF2333.0
aF3523.0
aF2355702.0
aF3444470.0
aF0.02015327845586148
aF0.14814814814814814
aF1250000.0
aF0.0
aF-262500.0
aF0.0
aS'christopher.calger@enron.com'
p228
aF0.0
aF35818.0
aF144.0
aF199.0
aF25.0
aF0.0
aF375304.0
aF486.0
aF1.0
aF126027.0
aF0.0
aF240189.0
aF2188.0
aF2598.0
aF1639297.0
aF126027.0
aF0.00962278675904542
aF1.3819444444444444
aF300000.0
aF0.0
aF-159792.0
aF0.0
aS'rebecca.carter@enron.com'
p229
aF0.0
aF0.0
aF15.0
aF29.0
aF7.0
aF0.0
aF75000.0
aF540.0
aF0.0
aF307301.0
aF-307301.0
aF261809.0
aF196.0
aF312.0
aF477557.0
aF0.0
aF0.022435897435897436
aF1.9333333333333333
aF1000000.0
aF0.0
aF-235000.0
aF0.0
aS'richard.causey@enron.com'
p230
aF0.0
aF30674.0
aF49.0
aF58.0
aF12.0
aF0.0
aF350000.0
aF307895.0
aF1.0
aF2502063.0
aF0.0
aF415189.0
aF1585.0
aF1892.0
aF1868758.0
aF2502063.0
aF0.006342494714587738
aF1.183673469387755
aF0.0
aF0.0
aF-98784.0
aF98784.0
aF0.0
aF0.0
aF0.0
aF0.0
aF0.0
aF0.0
aF0.0
aF0.0
aF0.0
aF0.0
aF32460.0
aF-32460.0
aF0.0
aF0.0
aF0.0
aF0.0
aF0.0
aF0.0
aF0.0
aF0.0
aF0.0
aF0.0
aF0.0
aS'diomedes.christodoulou@enron.com'
p231
aF5127155.0
aF0.0
aF0.0
aF0.0
aF0.0
aF0.0
aF0.0
aF0.0
aF0.0
aF950730.0
aF0.0
aF0.0
aF0.0
aF0.0
aF0.0
aF6077885.0
aF0.0
aF0.0
aF0.0
aF0.0
aF0.0
aF0.0
aF0.0
aF0.0
aF0.0
aF0.0
aF0.0
aF0.0
aF0.0
aF0.0
aF0.0
aF0.0
aF662086.0
aF-472568.0
aF0.0
aF0.0
aF0.0
aF0.0
aF189518.0
aF0.0
aF0.0
aF1200000.0
aF27610.0
aF-144062.0
aF0.0
aS'wes.colwell@enron.com'
p232
aF0.0
aF16514.0
aF40.0
aF240.0
aF11.0
aF0.0
aF0.0
aF101740.0
aF1.0
aF698242.0
aF0.0
aF288542.0
aF1132.0
aF1758.0
aF1490344.0
aF698242.0
aF0.006257110352673493
aF6.0
aF0.0
aF0.0
aF0.0
aF0.0
aS'bill.cordes@enron.com'
p233
aF651850.0
aF0.0
aF12.0
aF10.0
aF0.0
aF0.0
aF0.0
aF0.0
aF0.0
aF386335.0
aF0.0
aF0.0
aF58.0
aF764.0
aF0.0
aF1038185.0
aF0.0
aF0.8333333333333334
aF800000.0
aF0.0
aF-41250.0
aF0.0
aS'chip.cox@enron.com'
p234
aF117551.0
aF27861.0
aF33.0
aF0.0
aF4.0
aF0.0
aF0.0
aF494.0
aF0.0
aF378082.0
aF0.0
aF314288.0
aF71.0
aF102.0
aF1101393.0
aF495633.0
aF0.0392156862745098
aF0.0
aF325000.0
aF0.0
aF0.0
aF0.0
aF0.0
aF0.0
aF22344.0
aF0.0
aF0.0
aF0.0
aF0.0
aF275000.0
aF713.0
aF0.0
aF207940.0
aF0.0
aF184899.0
aF0.0
aF0.0
aF807956.0
aF207940.0
aF0.0
aF0.0
aF600000.0
aF0.0
aF0.0
aF0.0
aS'joseph.deffner@enron.com'
p235
aF17378.0
aF41626.0
aF74.0
aF115.0
aF4.0
aF0.0
aF335349.0
aF25553.0
aF0.0
aF141833.0
aF0.0
aF206121.0
aF552.0
aF714.0
aF1208649.0
aF159211.0
aF0.0056022408963585435
aF1.554054054054054
aF3000000.0
aF0.0
aF0.0
aF0.0
aS'david.delainey@enron.com'
p236
aF2291113.0
aF86174.0
aF3069.0
aF66.0
aF609.0
aF0.0
aF1294981.0
aF1661.0
aF1.0
aF1323148.0
aF0.0
aF365163.0
aF2097.0
aF3093.0
aF4747979.0
aF3614261.0
aF0.19689621726479145
aF0.021505376344086023
aF800000.0
aF0.0
aF-1284000.0
aF0.0
aS'james.derrick@enron.com'
p237
aF8831913.0
aF51124.0
aF909.0
aF64.0
aF20.0
aF0.0
aF484000.0
aF7482.0
aF0.0
aF1787380.0
aF-1787380.0
aF492375.0
aF1401.0
aF2181.0
aF550981.0
aF8831913.0
aF0.009170105456212746
aF0.0704070407040704
aF425000.0
aF875307.0
aF-775241.0
aF0.0
aS'timothy.detmering@enron.com'
p238
aF2027865.0
aF52255.0
aF0.0
aF0.0
aF0.0
aF0.0
aF415657.0
aF1105.0
aF0.0
aF315068.0
aF-315068.0
aF210500.0
aF0.0
aF0.0
aF1204583.0
aF2027865.0
aF0.0
aF0.0
aF600000.0
aF0.0
aF0.0
aF0.0
aS'janet.dietrich@enron.com'
p239
aF1550019.0
aF3475.0
aF63.0
aF305.0
aF14.0
aF0.0
aF556416.0
aF473.0
aF0.0
aF315068.0
aF0.0
aF250100.0
aF1902.0
aF2572.0
aF1410464.0
aF1865087.0
aF0.005443234836702955
aF4.841269841269841
aF1000000.0
aF0.0
aF0.0
aF0.0
aS'richard.dimichele@enron.com'
p240
aF8191755.0
aF35812.0
aF0.0
aF0.0
aF0.0
aF0.0
aF694862.0
aF374689.0
aF0.0
aF126027.0
aF0.0
aF262788.0
aF0.0
aF0.0
aF2368151.0
aF8317782.0
aF0.0
aF0.0
aF70000.0
aF0.0
aF0.0
aF0.0
aS'keith.dodson@enron.com'
p241
aF0.0
aF28164.0
aF14.0
aF10.0
aF3.0
aF0.0
aF0.0
aF774.0
aF0.0
aF0.0
aF0.0
aF221003.0
aF114.0
aF176.0
aF319941.0
aF0.0
aF0.017045454545454544
aF0.7142857142857143
aF800000.0
aF0.0
aF-300000.0
aF0.0
aS'jeff.donahue@enron.com'
p242
aF765920.0
aF96268.0
aF22.0
aF188.0
aF11.0
aF0.0
aF0.0
aF891.0
aF0.0
aF315068.0
aF0.0
aF278601.0
aF772.0
aF865.0
aF875760.0
aF1080988.0
aF0.012716763005780347
aF8.545454545454545
aF0.0
aF0.0
aF-25000.0
aF102492.0
aF0.0
aF371750.0
aF0.0
aF0.0
aF0.0
aF0.0
aF0.0
aF0.0
aF0.0
aF0.0
aF0.0
aF0.0
aF0.0
aF0.0
aF0.0
aF77492.0
aF371750.0
aF0.0
aF0.0
aF750000.0
aF0.0
aF0.0
aF0.0
aS'w.duran@enron.com'
p243
aF1451869.0
aF25785.0
aF12.0
aF106.0
aF3.0
aF0.0
aF1105218.0
aF1568.0
aF0.0
aF189041.0
aF0.0
aF210692.0
aF599.0
aF904.0
aF2093263.0
aF1640910.0
aF0.00331858407079646
aF8.833333333333334
aF200000.0
aF0.0
aF0.0
aF0.0
aS'john.echols@enron.com'
p244
aF601438.0
aF21530.0
aF0.0
aF0.0
aF0.0
aF0.0
aF2234774.0
aF53775.0
aF0.0
aF407503.0
aF0.0
aF182245.0
aF0.0
aF0.0
aF2692324.0
aF1008941.0
aF0.0
aF0.0
aF350000.0
aF0.0
aF-400729.0
aF0.0
aS'steven.elliott@enron.com'
p245
aF4890344.0
aF78552.0
aF0.0
aF0.0
aF0.0
aF0.0
aF0.0
aF12961.0
aF0.0
aF1788391.0
aF0.0
aF170941.0
aF0.0
aF0.0
aF211725.0
aF6678735.0
aF0.0
aF0.0
aF2500000.0
aF0.0
aF0.0
aF0.0
aS'jim.fallon@enron.com'
p246
aF940257.0
aF95924.0
aF75.0
aF42.0
aF37.0
aF0.0
aF374347.0
aF401481.0
aF0.0
aF1392142.0
aF0.0
aF304588.0
aF1604.0
aF1755.0
aF3676340.0
aF2332399.0
aF0.021082621082621083
aF0.56
aF1300000.0
aF0.0
aF-1386055.0
aF0.0
aS'andrew.fastow@enron.com'
p247
aF0.0
aF55921.0
aF0.0
aF0.0
aF0.0
aF0.0
aF1736055.0
aF277464.0
aF1.0
aF1794412.0
aF0.0
aF440698.0
aF0.0
aF0.0
aF2424083.0
aF1794412.0
aF0.0
aF0.0
aF350000.0
aF0.0
aF0.0
aF0.0
aS'jay.fitzgerald@enron.com'
p248
aF664461.0
aF23870.0
aF16.0
aF1.0
aF8.0
aF0.0
aF556416.0
aF285414.0
aF0.0
aF956775.0
aF0.0
aF199157.0
aF723.0
aF936.0
aF1414857.0
aF1621236.0
aF0.008547008547008548
aF0.0625
aF0.0
aF0.0
aF0.0
aF0.0
aS'kulvinder.fowler@enron.com'
p249
aF1324578.0
aF0.0
aF36.0
aF0.0
aF0.0
aF0.0
aF0.0
aF0.0
aF0.0
aF560170.0
aF0.0
aF0.0
aF10.0
aF517.0
aF0.0
aF1884748.0
aF0.0
aF0.0
aF0.0
aF181755.0
aF0.0
aF0.0
aS'tracy.foy@enron.com'
p250
aF343434.0
aF0.0
aF13.0
aF0.0
aF0.0
aF0.0
aF0.0
aF0.0
aF0.0
aF0.0
aF0.0
aF0.0
aF2.0
aF57.0
aF181755.0
aF343434.0
aF0.0
aF0.0
aF2000000.0
aF6426990.0
aF-3367011.0
aF0.0
aS'mark.frevert@enron.com'
p251
aF10433518.0
aF86987.0
aF21.0
aF242.0
aF6.0
aF2000000.0
aF1617011.0
aF7427621.0
aF0.0
aF4188667.0
aF0.0
aF1060932.0
aF2979.0
aF3275.0
aF17252530.0
aF14622185.0
aF0.00183206106870229
aF11.523809523809524
aF0.0
aF50591.0
aF0.0
aF0.0
aF0.0
aF176378.0
aF0.0
aF0.0
aF0.0
aF0.0
aF0.0
aF0.0
aF0.0
aF0.0
aF0.0
aF0.0
aF0.0
aF0.0
aF0.0
aF50591.0
aF176378.0
aF0.0
aF0.0
aF509870.0
aF73122.0
aF-1042.0
aF0.0
aF0.0
aF83237.0
aF50080.0
aF0.0
aF0.0
aF0.0
aF0.0
aF0.0
aF76547.0
aF0.0
aF235370.0
aF0.0
aF192008.0
aF0.0
aF0.0
aF900585.0
aF318607.0
aF0.0
aF0.0
aF850000.0
aF0.0
aF0.0
aF0.0
aS'kevin.garland@enron.com'
p252
aF636246.0
aF48405.0
aF44.0
aF10.0
aF27.0
aF0.0
aF375304.0
aF60814.0
aF0.0
aF259907.0
aF0.0
aF231946.0
aF178.0
aF209.0
aF1566469.0
aF896153.0
aF0.1291866028708134
aF0.22727272727272727
aF0.0
aF0.0
aF0.0
aF0.0
aF0.0
aF1753766.0
aF0.0
aF0.0
aF0.0
aF0.0
aF0.0
aF0.0
aF0.0
aF0.0
aF264013.0
aF-72419.0
aF0.0
aF0.0
aF0.0
aF0.0
aF1945360.0
aF0.0
aF0.0
aF0.0
aF504610.0
aF0.0
aF0.0
aS'dana.gibbs@enron.com'
p253
aF2218275.0
aF0.0
aF12.0
aF0.0
aF0.0
aF0.0
aF461912.0
aF0.0
aF0.0
aF0.0
aF0.0
aF0.0
aF23.0
aF169.0
aF966522.0
aF2218275.0
aF0.0
aF0.0
aF0.0
aF0.0
aF0.0
aF0.0
aF0.0
aF9803.0
aF0.0
aF0.0
aF0.0
aF0.0
aF0.0
aF0.0
aF0.0
aF0.0
aF75838.0
aF0.0
aF0.0
aF0.0
aF0.0
aF0.0
aF85641.0
aF0.0
aF0.0
aF600000.0
aF0.0
aF0.0
aF0.0
aS'ben.glisan@enron.com'
p254
aF384728.0
aF125978.0
aF16.0
aF52.0
aF6.0
aF0.0
aF71023.0
aF200308.0
aF1.0
aF393818.0
aF0.0
aF274975.0
aF874.0
aF873.0
aF1272284.0
aF778546.0
aF0.006872852233676976
aF3.25
aF750000.0
aF0.0
aF0.0
aF0.0
aS'joe.gold@enron.com'
p255
aF436515.0
aF0.0
aF0.0
aF0.0
aF0.0
aF0.0
aF304805.0
aF819288.0
aF0.0
aF441096.0
aF0.0
aF272880.0
aF0.0
aF0.0
aF2146973.0
aF877611.0
aF0.0
aF0.0
aF0.0
aF0.0
aF0.0
aF119292.0
aF0.0
aF0.0
aF0.0
aF0.0
aF0.0
aF0.0
aF0.0
aF0.0
aF0.0
aF0.0
aF0.0
aF0.0
aF0.0
aF0.0
aF0.0
aF119292.0
aF0.0
aF0.0
aF0.0
aF0.0
aF93585.0
aF0.0
aF0.0
aF0.0
aF0.0
aF0.0
aF0.0
aF0.0
aF0.0
aF0.0
aF365625.0
aF680833.0
aF0.0
aF0.0
aF0.0
aF6615.0
aF0.0
aF0.0
aF1146658.0
aF0.0
aF0.0
aF0.0
aF1150000.0
aF2157527.0
aF-934484.0
aF0.0
aS'mark.haedicke@enron.com'
p256
aF608750.0
aF76169.0
aF1941.0
aF180.0
aF61.0
aF0.0
aF983346.0
aF52382.0
aF0.0
aF524169.0
aF-329825.0
aF374125.0
aF1847.0
aF4009.0
aF3859065.0
aF803094.0
aF0.015215764529807932
aF0.09273570324574962
aF1500000.0
aF0.0
aF-3117011.0
aF0.0
aS'kevin.hannon@enron.com'
p257
aF5538001.0
aF34039.0
aF32.0
aF32.0
aF21.0
aF0.0
aF1617011.0
aF11350.0
aF1.0
aF853064.0
aF0.0
aF243293.0
aF1035.0
aF1045.0
aF288682.0
aF6391065.0
aF0.020095693779904306
aF1.0
aF0.0
aF0.0
aF0.0
aF0.0
aS'david.haug@enron.com'
p258
aF0.0
aF475.0
aF19.0
aF4.0
aF7.0
aF0.0
aF0.0
aF0.0
aF0.0
aF2217299.0
aF0.0
aF0.0
aF471.0
aF573.0
aF475.0
aF2217299.0
aF0.012216404886561954
aF0.21052631578947367
aF0.0
aF7961.0
aF0.0
aF0.0
aS'robert.hayes@enron.com'
p259
aF0.0
aF0.0
aF12.0
aF16.0
aF0.0
aF0.0
aF0.0
aF0.0
aF0.0
aF151418.0
aF0.0
aF0.0
aF50.0
aF504.0
aF7961.0
aF151418.0
aF0.0
aF1.3333333333333333
aF0.0
aF0.0
aF0.0
aF0.0
aS'rod.hayslett@enron.com'
p260
aF0.0
aF0.0
aF1061.0
aF35.0
aF38.0
aF0.0
aF0.0
aF0.0
aF0.0
aF346663.0
aF0.0
aF0.0
aF571.0
aF2649.0
aF0.0
aF346663.0
aF0.014345035862589657
aF0.03298774740810556
aF700000.0
aF0.0
aF-280000.0
aF0.0
aS'robert.hermann@enron.com'
p261
aF187500.0
aF48357.0
aF0.0
aF0.0
aF0.0
aF0.0
aF150000.0
aF416441.0
aF0.0
aF480632.0
aF0.0
aF262663.0
aF0.0
aF0.0
aF1297461.0
aF668132.0
aF0.0
aF0.0
aF1700000.0
aF0.0
aF0.0
aF0.0
aS'gary.hickerson@enron.com'
p262
aF0.0
aF98849.0
aF27.0
aF40.0
aF1.0
aF0.0
aF69223.0
aF1936.0
aF0.0
aF441096.0
aF0.0
aF211788.0
aF900.0
aF1320.0
aF2081796.0
aF441096.0
aF0.0007575757575757576
aF1.4814814814814814
aF0.0
aF10259.0
aF0.0
aF0.0
aS'joe.hirko@enron.com'
p263
aF30766064.0
aF77978.0
aF0.0
aF0.0
aF0.0
aF0.0
aF0.0
aF2856.0
aF1.0
aF0.0
aF0.0
aF0.0
aF0.0
aF0.0
aF91093.0
aF30766064.0
aF0.0
aF0.0
aF0.0
aF3131860.0
aF0.0
aF0.0
aS'stanley.horton@enron.com'
p264
aF5210569.0
aF0.0
aF1073.0
aF44.0
aF15.0
aF0.0
aF0.0
aF0.0
aF0.0
aF2046079.0
aF0.0
aF0.0
aF1074.0
aF2350.0
aF3131860.0
aF7256648.0
aF0.006382978723404255
aF0.04100652376514446
aF0.0
aF0.0
aF0.0
aF0.0
aS'james.hughes@enron.com'
p265
aF754966.0
aF0.0
aF34.0
aF35.0
aF5.0
aF0.0
aF0.0
aF0.0
aF0.0
aF363428.0
aF0.0
aF0.0
aF589.0
aF719.0
aF0.0
aF1118394.0
aF0.006954102920723227
aF1.0294117647058822
aF0.0
aF2964506.0
aF0.0
aF0.0
aS'gene.humphrey@enron.com'
p266
aF2282768.0
aF4994.0
aF17.0
aF10.0
aF17.0
aF0.0
aF0.0
aF0.0
aF0.0
aF0.0
aF0.0
aF130724.0
aF119.0
aF128.0
aF3100224.0
aF2282768.0
aF0.1328125
aF0.5882352941176471
aF0.0
aF0.0
aF0.0
aF0.0
aS'larry.izzo@enron.com'
p267
aF2165172.0
aF28093.0
aF19.0
aF28.0
aF5.0
aF0.0
aF312500.0
aF1553729.0
aF0.0
aF3654808.0
aF0.0
aF85274.0
aF437.0
aF496.0
aF1979596.0
aF5819980.0
aF0.010080645161290322
aF1.4736842105263157
aF250000.0
aF0.0
aF0.0
aF0.0
aS'charlene.jackson@enron.com'
p268
aF185063.0
aF10181.0
aF56.0
aF25.0
aF19.0
aF0.0
aF0.0
aF2435.0
aF0.0
aF540672.0
aF0.0
aF288558.0
aF117.0
aF258.0
aF551174.0
aF725735.0
aF0.07364341085271318
aF0.44642857142857145
aF0.0
aF0.0
aF-25000.0
aF108750.0
aF0.0
aF431750.0
aF0.0
aF0.0
aF0.0
aF0.0
aF0.0
aF0.0
aF0.0
aF0.0
aF44093.0
aF-44093.0
aF0.0
aF0.0
aF0.0
aF83750.0
aF431750.0
aF0.0
aF0.0
aF400000.0
aF0.0
aF0.0
aF0.0
aS'vince.kaminski@enron.com'
p269
aF850010.0
aF83585.0
aF14368.0
aF41.0
aF171.0
aF0.0
aF323466.0
aF4669.0
aF0.0
aF126027.0
aF0.0
aF275101.0
aF583.0
aF4607.0
aF1086821.0
aF976037.0
aF0.03711742999782939
aF0.002853563474387528
aF1000000.0
aF0.0
aF0.0
aF0.0
aS'steven.kean@enron.com'
p270
aF2022048.0
aF41953.0
aF6759.0
aF140.0
aF387.0
aF0.0
aF300000.0
aF1231.0
aF0.0
aF4131594.0
aF0.0
aF404338.0
aF3639.0
aF12754.0
aF1747522.0
aF6153642.0
aF0.03034342167163243
aF0.020713123243083296
aF0.0
aF0.0
aF-51042.0
aF0.0
aS'joe.kishkill@enron.com'
p271
aF0.0
aF116335.0
aF0.0
aF0.0
aF0.0
aF0.0
aF0.0
aF465357.0
aF0.0
aF1034346.0
aF0.0
aF174246.0
aF0.0
aF0.0
aF704896.0
aF1034346.0
aF0.0
aF0.0
aF3100000.0
aF0.0
aF0.0
aF0.0
aS'louise.kitchen@enron.com'
p272
aF81042.0
aF5774.0
aF1728.0
aF251.0
aF194.0
aF0.0
aF0.0
aF93925.0
aF0.0
aF466101.0
aF0.0
aF271442.0
aF3669.0
aF8305.0
aF3471141.0
aF547143.0
aF0.023359422034918725
aF0.14525462962962962
aF700000.0
aF0.0
aF0.0
aF0.0
aS'mark.koenig@enron.com'
p273
aF671737.0
aF127017.0
aF61.0
aF53.0
aF15.0
aF0.0
aF300000.0
aF150458.0
aF1.0
aF1248318.0
aF0.0
aF309946.0
aF2271.0
aF2374.0
aF1587421.0
aF1920055.0
aF0.006318449873631003
aF0.8688524590163934
aF800000.0
aF0.0
aF0.0
aF0.0
aS'michael.kopper@enron.com'
p274
aF0.0
aF118134.0
aF0.0
aF0.0
aF0.0
aF0.0
aF602671.0
aF907502.0
aF1.0
aF985032.0
aF0.0
aF224305.0
aF0.0
aF0.0
aF2652612.0
aF985032.0
aF0.0
aF0.0
aF8000000.0
aF0.0
aF0.0
aF0.0
aS'john.lavorato@enron.com'
p275
aF4158995.0
aF49537.0
aF2585.0
aF528.0
aF411.0
aF0.0
aF2035380.0
aF1552.0
aF0.0
aF1008149.0
aF0.0
aF339288.0
aF3962.0
aF7259.0
aF10425757.0
aF5167144.0
aF0.05661936905909905
aF0.20425531914893616
aF7000000.0
aF202911.0
aF-300000.0
aF0.0
aS'kenneth.lay@enron.com'
p276
aF34348384.0
aF99832.0
aF36.0
aF123.0
aF16.0
aF81525000.0
aF3600000.0
aF10359729.0
aF1.0
aF14761694.0
aF0.0
aF1072321.0
aF2411.0
aF4273.0
aF103559793.0
aF49110078.0
aF0.003744441844137608
aF3.4166666666666665
aF1000000.0
aF0.0
aF0.0
aF0.0
aS'dan.leff@enron.com'
p277
aF0.0
aF0.0
aF63.0
aF67.0
aF14.0
aF0.0
aF1387399.0
aF3083.0
aF0.0
aF360528.0
aF0.0
aF273746.0
aF2672.0
aF2822.0
aF2664228.0
aF360528.0
aF0.004961020552799433
aF1.0634920634920635
aF0.0
aF0.0
aF-25000.0
aF112492.0
aF0.0
aF412878.0
aF0.0
aF0.0
aF0.0
aF0.0
aF0.0
aF0.0
aF0.0
aF0.0
aF0.0
aF0.0
aF0.0
aF0.0
aF0.0
aF87492.0
aF412878.0
aF0.0
aF0.0
aF0.0
aF0.0
aF0.0
aF0.0
aS'richard.lewis@enron.com'
p278
aF850477.0
aF0.0
aF26.0
aF10.0
aF0.0
aF0.0
aF0.0
aF0.0
aF0.0
aF0.0
aF0.0
aF0.0
aF739.0
aF952.0
aF0.0
aF850477.0
aF0.0
aF0.38461538461538464
aF200000.0
aF204075.0
aF0.0
aF0.0
aS'tod.lindholm@enron.com'
p279
aF2549361.0
aF57727.0
aF0.0
aF0.0
aF0.0
aF0.0
aF175000.0
aF2630.0
aF0.0
aF514847.0
aF0.0
aF236457.0
aF0.0
aF0.0
aF875889.0
aF3064208.0
aF0.0
aF0.0
aF0.0
aF0.0
aF0.0
aF0.0
aF0.0
aF0.0
aF0.0
aF0.0
aF0.0
aF0.0
aF0.0
aF0.0
aF0.0
aF0.0
aF0.0
aF0.0
aF0.0
aF0.0
aF0.0
aF0.0
aF0.0
aF0.0
aF0.0
aF0.0
aF0.0
aF0.0
aF0.0
aF0.0
aF372205.0
aF0.0
aF0.0
aF0.0
aF0.0
aF0.0
aF0.0
aF0.0
aF0.0
aF153686.0
aF-153686.0
aF0.0
aF0.0
aF0.0
aF0.0
aF372205.0
aF0.0
aF0.0
aF0.0
aF85430.0
aF0.0
aF0.0
aS'a..martin@enron.com'
p280
aF2070306.0
aF8211.0
aF230.0
aF8.0
aF0.0
aF0.0
aF5145434.0
aF2818454.0
aF0.0
aF0.0
aF0.0
aF349487.0
aF477.0
aF1522.0
aF8407016.0
aF2070306.0
aF0.0
aF0.034782608695652174
aF0.0
aF0.0
aF0.0
aF0.0
aS'danny.mccarty@enron.com'
p281
aF664375.0
aF0.0
aF215.0
aF25.0
aF2.0
aF0.0
aF0.0
aF0.0
aF0.0
aF94556.0
aF0.0
aF0.0
aF508.0
aF1433.0
aF0.0
aF758931.0
aF0.0013956734124214933
aF0.11627906976744186
aF900000.0
aF0.0
aF-125000.0
aF0.0
aS'george.mcclellan@enron.com'
p282
aF506765.0
aF228763.0
aF49.0
aF52.0
aF0.0
aF0.0
aF0.0
aF51587.0
aF0.0
aF441096.0
aF0.0
aF263413.0
aF1469.0
aF1744.0
aF1318763.0
aF947861.0
aF0.0
aF1.0612244897959184
aF1100000.0
aF0.0
aF0.0
aF0.0
aS'mike.mcconnell@enron.com'
p283
aF1623010.0
aF81364.0
aF2742.0
aF92.0
aF194.0
aF0.0
aF554422.0
aF540.0
aF0.0
aF1478269.0
aF0.0
aF365038.0
aF2189.0
aF3329.0
aF2101364.0
aF3101279.0
aF0.058275758486031844
aF0.03355215171407731
aF0.0
aF0.0
aF0.0
aF0.0
aS'rebecca.mcdonald@enron.com'
p284
aF757301.0
aF0.0
aF13.0
aF54.0
aF1.0
aF0.0
aF0.0
aF0.0
aF0.0
aF934065.0
aF0.0
aF0.0
aF720.0
aF894.0
aF0.0
aF1691366.0
aF0.0011185682326621924
aF4.153846153846154
aF2600000.0
aF0.0
aF0.0
aF0.0
aS'jeffrey.mcmahon@enron.com'
p285
aF1104054.0
aF137108.0
aF48.0
aF58.0
aF26.0
aF0.0
aF694862.0
aF297353.0
aF0.0
aF558801.0
aF0.0
aF370448.0
aF2228.0
aF2355.0
aF4099771.0
aF1662855.0
aF0.011040339702760084
aF1.2083333333333333
aF0.0
aF0.0
aF-103750.0
aF103750.0
aF0.0
aF0.0
aF148.0
aF0.0
aF0.0
aF0.0
aF0.0
aF0.0
aF0.0
aF0.0
aF0.0
aF0.0
aF0.0
aF0.0
aF0.0
aF148.0
aF0.0
aF0.0
aF0.0
aF600000.0
aF0.0
aF0.0
aF0.0
aS'mark.metts@enron.com'
p286
aF0.0
aF94299.0
aF29.0
aF38.0
aF1.0
aF0.0
aF0.0
aF1740.0
aF0.0
aF585062.0
aF0.0
aF365788.0
aF702.0
aF807.0
aF1061827.0
aF585062.0
aF0.0012391573729863693
aF1.3103448275862069
aF0.0
aF0.0
aF-38346.0
aF38346.0
aF0.0
aF0.0
aF2151.0
aF0.0
aF0.0
aF0.0
aF0.0
aF0.0
aF0.0
aF0.0
aF0.0
aF0.0
aF0.0
aF0.0
aF0.0
aF2151.0
aF0.0
aF0.0
aF0.0
aF0.0
aF1848227.0
aF0.0
aF0.0
aS'rockford.meyer@enron.com'
p287
aF493489.0
aF0.0
aF28.0
aF0.0
aF0.0
aF0.0
aF0.0
aF0.0
aF0.0
aF462384.0
aF0.0
aF0.0
aF22.0
aF232.0
aF1848227.0
aF955873.0
aF0.0
aF0.0
aF0.0
aF0.0
aF0.0
aF0.0
aS'michael.moran@enron.com'
p288
aF59539.0
aF0.0
aF19.0
aF0.0
aF0.0
aF0.0
aF0.0
aF0.0
aF0.0
aF161602.0
aF0.0
aF0.0
aF127.0
aF672.0
aF0.0
aF221141.0
aF0.0
aF0.0
aF325000.0
aF0.0
aF0.0
aF0.0
aS'kristina.mordaunt@enron.com'
p289
aF0.0
aF35018.0
aF0.0
aF0.0
aF0.0
aF0.0
aF0.0
aF1411.0
aF0.0
aF208510.0
aF0.0
aF267093.0
aF0.0
aF0.0
aF628522.0
aF208510.0
aF0.0
aF0.0
aF1100000.0
aF842924.0
aF-719000.0
aF0.0
aS's..muller@enron.com'
p290
aF1056320.0
aF0.0
aF16.0
aF12.0
aF0.0
aF0.0
aF1725545.0
aF947.0
aF0.0
aF360528.0
aF0.0
aF251654.0
aF114.0
aF136.0
aF3202070.0
aF1416848.0
aF0.0
aF0.75
aF400000.0
aF0.0
aF0.0
aF0.0
aS'julia.murray@enron.com'
p291
aF400478.0
aF57580.0
aF45.0
aF11.0
aF2.0
aF0.0
aF125000.0
aF330.0
aF0.0
aF196983.0
aF0.0
aF229284.0
aF395.0
aF2192.0
aF812194.0
aF597461.0
aF0.0009124087591240876
aF0.24444444444444444
aF0.0
aF774401.0
aF0.0
aF0.0
aF0.0
aF0.0
aF0.0
aF0.0
aF0.0
aF0.0
aF0.0
aF0.0
aF0.0
aF0.0
aF463261.0
aF-94556.0
aF0.0
aF0.0
aF0.0
aF774401.0
aF368705.0
aF0.0
aF0.0
aF750000.0
aF77716.0
aF0.0
aF0.0
aS'cindy.olson@enron.com'
p292
aF1637034.0
aF63791.0
aF52.0
aF20.0
aF15.0
aF0.0
aF100000.0
aF972.0
aF0.0
aF969729.0
aF0.0
aF329078.0
aF856.0
aF1184.0
aF1321557.0
aF2606763.0
aF0.01266891891891892
aF0.38461538461538464
aF0.0
aF0.0
aF0.0
aF0.0
aS'jere.overdyke@enron.com'
p293
aF5266578.0
aF18834.0
aF0.0
aF0.0
aF0.0
aF0.0
aF135836.0
aF176.0
aF0.0
aF2041016.0
aF0.0
aF94941.0
aF0.0
aF0.0
aF249787.0
aF7307594.0
aF0.0
aF0.0
aF1000000.0
aF0.0
aF0.0
aF0.0
aS'lou.pai@enron.com'
p294
aF15364167.0
aF32047.0
aF0.0
aF0.0
aF0.0
aF0.0
aF0.0
aF1829457.0
aF0.0
aF8453763.0
aF0.0
aF261879.0
aF0.0
aF0.0
aF3123383.0
aF23817930.0
aF0.0
aF0.0
aF0.0
aF0.0
aF-101250.0
aF101250.0
aF0.0
aF0.0
aF27942.0
aF0.0
aF0.0
aF0.0
aF0.0
aF0.0
aF0.0
aF0.0
aF0.0
aF0.0
aF0.0
aF0.0
aF0.0
aF27942.0
aF0.0
aF0.0
aF0.0
aF300000.0
aF0.0
aF0.0
aF0.0
aS'mark.pickering@enron.com'
p295
aF28798.0
aF31653.0
aF67.0
aF7.0
aF0.0
aF400000.0
aF0.0
aF0.0
aF0.0
aF0.0
aF0.0
aF655037.0
aF728.0
aF898.0
aF1386690.0
aF28798.0
aF0.0
aF0.1044776119402985
aF400000.0
aF1130036.0
aF-33333.0
aF0.0
aS'greg.piper@enron.com'
p296
aF880290.0
aF43057.0
aF222.0
aF61.0
aF48.0
aF0.0
aF0.0
aF778.0
aF0.0
aF409554.0
aF-409554.0
aF197091.0
aF742.0
aF1238.0
aF1737629.0
aF880290.0
aF0.03877221324717286
aF0.2747747747747748
aF0.0
aF0.0
aF0.0
aF0.0
aS'jim.piro@enron.com'
p297
aF0.0
aF0.0
aF16.0
aF0.0
aF1.0
aF0.0
aF0.0
aF0.0
aF0.0
aF47304.0
aF0.0
aF0.0
aF3.0
aF58.0
aF0.0
aF47304.0
aF0.017241379310344827
aF0.0
aF0.0
aF0.0
aF-17500.0
aF17500.0
aS'ken.powers@enron.com'
p298
aF0.0
aF0.0
aF26.0
aF0.0
aF0.0
aF0.0
aF0.0
aF0.0
aF0.0
aF0.0
aF0.0
aF0.0
aF12.0
aF653.0
aF0.0
aF0.0
aF0.0
aF0.0
aF0.0
aF564348.0
aF0.0
aF0.0
aS'james.prentice@enron.com'
p299
aF886231.0
aF0.0
aF0.0
aF0.0
aF0.0
aF0.0
aF0.0
aF0.0
aF0.0
aF208809.0
aF0.0
aF0.0
aF0.0
aF0.0
aF564348.0
aF1095040.0
aF0.0
aF0.0
aF0.0
aF0.0
aF0.0
aF0.0
aS'brian.redmond@enron.com'
p300
aF7509039.0
aF14689.0
aF221.0
aF204.0
aF49.0
aF0.0
aF0.0
aF0.0
aF0.0
aF381285.0
aF0.0
aF96840.0
aF1063.0
aF1671.0
aF111529.0
aF7890324.0
aF0.029323758228605626
aF0.9230769230769231
aF100000.0
aF51365.0
aF-200000.0
aF0.0
aF0.0
aF4160672.0
aF8409.0
aF0.0
aF0.0
aF0.0
aF0.0
aF156250.0
aF202052.0
aF0.0
aF201483.0
aF-140264.0
aF76399.0
aF0.0
aF0.0
aF394475.0
aF4221891.0
aF0.0
aF0.0
aF1750000.0
aF0.0
aF-3504386.0
aF0.0
aS'ken.rice@enron.com'
p301
aF19794175.0
aF46950.0
aF18.0
aF42.0
aF4.0
aF0.0
aF1617011.0
aF174839.0
aF1.0
aF2748364.0
aF0.0
aF420636.0
aF864.0
aF905.0
aF505050.0
aF22542539.0
aF0.004419889502762431
aF2.3333333333333335
aF700000.0
aF214678.0
aF-100000.0
aF0.0
aS'paula.rieker@enron.com'
p302
aF1635238.0
aF33271.0
aF82.0
aF35.0
aF48.0
aF0.0
aF0.0
aF1950.0
aF1.0
aF283649.0
aF0.0
aF249201.0
aF1258.0
aF1328.0
aF1099100.0
aF1918887.0
aF0.03614457831325301
aF0.4268292682926829
aF0.0
aF0.0
aF-121284.0
aF125034.0
aF0.0
aF0.0
aF0.0
aF0.0
aF0.0
aF0.0
aF0.0
aF0.0
aF0.0
aF0.0
aF0.0
aF0.0
aF0.0
aF0.0
aF0.0
aF3750.0
aF0.0
aF0.0
aF0.0
aF0.0
aF0.0
aF0.0
aF0.0
aS'matthew.scrimshaw@enron.com'
p303
aF759557.0
aF0.0
aF0.0
aF0.0
aF0.0
aF0.0
aF0.0
aF0.0
aF0.0
aF0.0
aF0.0
aF0.0
aF0.0
aF0.0
aF0.0
aF759557.0
aF0.0
aF0.0
aF2000000.0
aF0.0
aF0.0
aF0.0
aS'jeffrey.shankman@enron.com'
p304
aF1441898.0
aF178979.0
aF2681.0
aF94.0
aF83.0
aF0.0
aF554422.0
aF1191.0
aF0.0
aF630137.0
aF0.0
aF304110.0
aF1730.0
aF3221.0
aF3038702.0
aF2072035.0
aF0.025768394908413535
aF0.0350615441999254
aF650000.0
aF0.0
aF0.0
aF0.0
aS'richard.shapiro@enron.com'
p305
aF607837.0
aF137767.0
aF1215.0
aF74.0
aF65.0
aF0.0
aF0.0
aF705.0
aF0.0
aF379164.0
aF0.0
aF269076.0
aF4527.0
aF15149.0
aF1057548.0
aF987001.0
aF0.004290712258234867
aF0.060905349794238686
aF600000.0
aF187469.0
aF0.0
aF0.0
aS'vicki.sharp@enron.com'
p306
aF281073.0
aF116337.0
aF136.0
aF24.0
aF6.0
aF0.0
aF422158.0
aF2401.0
aF0.0
aF213063.0
aF0.0
aF248146.0
aF2477.0
aF3136.0
aF1576511.0
aF494136.0
aF0.001913265306122449
aF0.17647058823529413
aF200000.0
aF0.0
aF-4167.0
aF0.0
aS'rex.shelby@enron.com'
p307
aF1624396.0
aF22884.0
aF39.0
aF13.0
aF14.0
aF0.0
aF0.0
aF1573324.0
aF1.0
aF869220.0
aF0.0
aF211844.0
aF91.0
aF225.0
aF2003885.0
aF2493616.0
aF0.06222222222222222
aF0.3333333333333333
aF0.0
aF0.0
aF0.0
aF0.0
aS'jeffrey.sherrick@enron.com'
p308
aF1426469.0
aF0.0
aF25.0
aF39.0
aF18.0
aF0.0
aF0.0
aF0.0
aF0.0
aF405999.0
aF0.0
aF0.0
aF583.0
aF613.0
aF0.0
aF1832468.0
aF0.02936378466557912
aF1.56
aF1500000.0
aF0.0
aF0.0
aF0.0
aS'john.sherriff@enron.com'
p309
aF1835558.0
aF0.0
aF92.0
aF28.0
aF23.0
aF0.0
aF554422.0
aF1852186.0
aF0.0
aF1293424.0
aF0.0
aF428780.0
aF2103.0
aF3187.0
aF4335388.0
aF3128982.0
aF0.0072168183244430495
aF0.30434782608695654
aF5600000.0
aF0.0
aF0.0
aF0.0
aS'jeff.skilling@enron.com'
p310
aF19250000.0
aF29336.0
aF108.0
aF88.0
aF30.0
aF0.0
aF1920000.0
aF22122.0
aF1.0
aF6843672.0
aF0.0
aF1111258.0
aF2042.0
aF3627.0
aF8682716.0
aF26093672.0
aF0.008271298593879239
aF0.8148148148148148
aF500000.0
aF0.0
aF0.0
aF0.0
aS'frank.stabler@enron.com'
p311
aF0.0
aF16514.0
aF0.0
aF0.0
aF0.0
aF0.0
aF0.0
aF356071.0
aF0.0
aF511734.0
aF0.0
aF239502.0
aF0.0
aF0.0
aF1112087.0
aF511734.0
aF0.0
aF0.0
aF100000.0
aF181993.0
aF0.0
aF0.0
aF0.0
aF1362375.0
aF0.0
aF0.0
aF0.0
aF0.0
aF0.0
aF554422.0
aF162.0
aF0.0
aF0.0
aF0.0
aF162779.0
aF0.0
aF0.0
aF999356.0
aF1362375.0
aF0.0
aF0.0
aF700000.0
aF0.0
aF0.0
aF0.0
aS'marty.sunde@enron.com'
p312
aF0.0
aF0.0
aF38.0
aF37.0
aF13.0
aF0.0
aF476451.0
aF111122.0
aF0.0
aF698920.0
aF0.0
aF257486.0
aF2565.0
aF2647.0
aF1545059.0
aF698920.0
aF0.004911220249338874
aF0.9736842105263158
aF600000.0
aF227449.0
aF0.0
aF0.0
aS'mitchell.taylor@enron.com'
p313
aF3181250.0
aF0.0
aF29.0
aF0.0
aF0.0
aF0.0
aF0.0
aF0.0
aF0.0
aF563798.0
aF0.0
aF265214.0
aF300.0
aF533.0
aF1092663.0
aF3745048.0
aF0.0
aF0.0
aF0.0
aF16586.0
aF0.0
aF0.0
aS'terence.thorn@enron.com'
p314
aF4452476.0
aF46145.0
aF41.0
aF0.0
aF0.0
aF0.0
aF200000.0
aF426629.0
aF0.0
aF365320.0
aF0.0
aF222093.0
aF73.0
aF266.0
aF911453.0
aF4817796.0
aF0.0
aF0.0
aF300000.0
aF0.0
aF-575000.0
aF0.0
aS'elizabeth.tilney@enron.com'
p315
aF591250.0
aF0.0
aF19.0
aF10.0
aF11.0
aF0.0
aF275000.0
aF152055.0
aF0.0
aF576792.0
aF0.0
aF247338.0
aF379.0
aF460.0
aF399393.0
aF1168042.0
aF0.02391304347826087
aF0.5263157894736842
aF788750.0
aF0.0
aF0.0
aF0.0
aS'adam.umanoff@enron.com'
p316
aF0.0
aF53122.0
aF18.0
aF12.0
aF0.0
aF0.0
aF0.0
aF0.0
aF0.0
aF0.0
aF0.0
aF288589.0
aF41.0
aF111.0
aF1130461.0
aF0.0
aF0.0
aF0.6666666666666666
aF0.0
aF0.0
aF-36666.0
aF36666.0
aF0.0
aF0.0
aF228656.0
aF0.0
aF0.0
aF0.0
aF0.0
aF0.0
aF0.0
aF0.0
aF0.0
aF0.0
aF0.0
aF0.0
aF0.0
aF228656.0
aF0.0
aF0.0
aF0.0
aF0.0
aF0.0
aF0.0
aF109298.0
aF0.0
aF0.0
aF103773.0
aF0.0
aF0.0
aF0.0
aF0.0
aF0.0
aF0.0
aF0.0
aF0.0
aF0.0
aF0.0
aF0.0
aF0.0
aF213071.0
aF0.0
aF0.0
aF0.0
aF850000.0
aF0.0
aF0.0
aF0.0
aS'rob.walls@enron.com'
p317
aF4346544.0
aF50936.0
aF146.0
aF17.0
aF0.0
aF0.0
aF540751.0
aF2.0
aF0.0
aF1552453.0
aF0.0
aF357091.0
aF215.0
aF671.0
aF1798780.0
aF5898997.0
aF0.0
aF0.11643835616438356
aF0.0
aF53625.0
aF0.0
aF0.0
aF0.0
aF1030329.0
aF33785.0
aF0.0
aF0.0
aF0.0
aF0.0
aF0.0
aF0.0
aF0.0
aF0.0
aF0.0
aF0.0
aF0.0
aF0.0
aF87410.0
aF1030329.0
aF0.0
aF0.0
aF325000.0
aF831299.0
aF-583325.0
aF0.0
aS'george.wasaff@enron.com'
p318
aF1668260.0
aF0.0
aF30.0
aF22.0
aF7.0
aF0.0
aF200000.0
aF1425.0
aF0.0
aF388167.0
aF0.0
aF259996.0
aF337.0
aF400.0
aF1034395.0
aF2056427.0
aF0.0175
aF0.7333333333333333
aF0.0
aF0.0
aF-10800.0
aF0.0
aS'dick.westfahl@enron.com'
p319
aF0.0
aF51870.0
aF0.0
aF0.0
aF0.0
aF0.0
aF256191.0
aF401130.0
aF0.0
aF384930.0
aF0.0
aF63744.0
aF0.0
aF0.0
aF762135.0
aF384930.0
aF0.0
aF0.0
aF0.0
aF0.0
aF0.0
aF0.0
aF0.0
aF98718.0
aF0.0
aF0.0
aF0.0
aF0.0
aF0.0
aF0.0
aF0.0
aF0.0
aF0.0
aF0.0
aF0.0
aF0.0
aF0.0
aF0.0
aF98718.0
aF0.0
aF0.0
aF3000000.0
aF0.0
aF0.0
aF0.0
aS'greg.whalley@enron.com'
p320
aF3282960.0
aF57838.0
aF556.0
aF186.0
aF24.0
aF0.0
aF808346.0
aF301026.0
aF0.0
aF2796177.0
aF0.0
aF510364.0
aF3920.0
aF6019.0
aF4677574.0
aF6079137.0
aF0.003987373317826882
aF0.3345323741007194
aF450000.0
aF0.0
aF0.0
aF0.0
aS'thomas.white@enron.com'
p321
aF1297049.0
aF81353.0
aF0.0
aF0.0
aF0.0
aF0.0
aF0.0
aF1085463.0
aF0.0
aF13847074.0
aF0.0
aF317543.0
aF0.0
aF0.0
aF1934359.0
aF15144123.0
aF0.0
aF0.0
aF0.0
aF0.0
aF-25000.0
aF108579.0
aF0.0
aF0.0
aF1413.0
aF0.0
aF0.0
aF0.0
aF0.0
aF0.0
aF0.0
aF0.0
aF0.0
aF0.0
aF0.0
aF0.0
aF0.0
aF84992.0
aF0.0
aF0.0
aF0.0
aF0.0
aF0.0
aF0.0
aF0.0
aS'john.wodraska@enron.com'
p322
aF0.0
aF0.0
aF0.0
aF0.0
aF0.0
aF0.0
aF0.0
aF189583.0
aF0.0
aF0.0
aF0.0
aF0.0
aF0.0
aF0.0
aF189583.0
aF0.0
aF0.0
aF0.0
aF0.0
aF0.0
aF0.0
aF0.0
aF0.0
aF139130.0
aF0.0
aF0.0
aF0.0
aF0.0
aF0.0
aF0.0
aF0.0
aF0.0
aF0.0
aF0.0
aF0.0
aF0.0
aF0.0
aF0.0
aF139130.0
aF0.0
aF0.0
aF0.0
aF0.0
aF0.0
aF0.0
aS'scott.yeager@enron.com'
p323
aF8308552.0
aF53947.0
aF0.0
aF0.0
aF0.0
aF0.0
aF0.0
aF147950.0
aF1.0
aF3576206.0
aF0.0
aF158403.0
aF0.0
aF0.0
aF360300.0
aF11884758.0
aF0.0
aF0.0
aF0.0
aF0.0
aF0.0
aF0.0
aF0.0
aF192758.0
aF55097.0
aF0.0
aF0.0
aF0.0
aF0.0
aF0.0
aF0.0
aF0.0
aF0.0
aF0.0
aF0.0
aF0.0
aF0.0
aF55097.0
aF192758.0
aF0.0
aF0.0
atp324
ba(lp325
g9
(g10
(dp326
g12
g13
(g14
(I0
tp327
g16
tp328
Rp329
(I1
(I144
tp330
g23
I00
(lp331
g27
ag28
ag29
ag30
ag31
ag32
ag33
ag34
ag35
ag36
ag37
ag38
ag39
ag40
ag41
ag42
ag43
ag44
ag45
ag46
ag47
ag48
ag49
ag50
ag51
ag52
ag53
ag54
ag55
ag56
ag57
ag58
ag59
ag60
ag61
ag62
ag63
ag64
ag65
ag66
ag67
ag68
ag69
ag70
ag71
ag72
ag73
ag74
ag75
ag76
ag77
ag78
ag79
ag80
ag81
ag82
ag83
ag84
ag85
ag86
ag87
ag88
ag89
ag90
ag91
ag92
ag93
ag94
ag95
ag96
ag97
ag98
ag99
ag100
ag101
ag102
ag103
ag104
ag105
ag106
ag107
ag108
ag109
ag110
ag111
ag112
ag113
ag114
ag115
ag116
ag117
ag118
ag119
ag120
ag121
ag122
ag123
ag124
ag125
ag126
ag127
ag128
ag129
ag130
ag131
ag132
ag133
ag134
ag135
ag136
ag137
ag138
ag139
ag140
ag141
ag142
ag143
ag144
ag145
ag146
ag147
ag148
ag149
ag150
ag151
ag152
ag153
ag154
ag155
ag156
ag157
ag158
ag159
ag160
ag161
ag162
ag163
ag164
ag165
ag166
ag167
ag168
ag169
ag170
atp332
bsg172
Nstp333
Rp334
a(dp335
S'0.14.1'
p336
(dp337
S'axes'
p338
g8
sS'blocks'
p339
(lp340
(dp341
S'mgr_locs'
p342
c__builtin__
slice
p343
(I0
I144
I1
tp344
Rp345
sS'values'
p346
g210
sasstp347
bb.